; Function Attrs: nounwind uwtable
define internal ptr @H5O__dtype_copy(ptr noundef %0, ptr noundef writeonly %1) #0 {
  %3 = tail call ptr @H5T_copy(ptr noundef %0, i32 noundef 1) #15
  %4 = icmp eq ptr %3, null
  br i1 %4, label %5, label %9

5:                                                ; preds = %2
  %6 = load i64, ptr @H5E_DATATYPE_g, align 8
  %7 = load i64, ptr @H5E_CANTINIT_g, align 8
  %8 = tail call i32 (ptr, ptr, i32, i64, i64, ptr, ...) @H5E_printf_stack(ptr noundef nonnull @.str.4, ptr noundef nonnull @__func__.H5O__dtype_copy, i32 noundef 1510, i64 noundef %6, i64 noundef %7, ptr noundef nonnull @.str.173) #15
  br label %12

9:                                                ; preds = %2
  %.not = icmp eq ptr %1, null
  br i1 %.not, label %12, label %10

10:                                               ; preds = %9
  tail call void @llvm.memcpy.p0.p0.i64(ptr noundef nonnull align 8 dereferenceable(104) %1, ptr noundef nonnull align 8 dereferenceable(104) %3, i64 104, i1 false)
  %11 = tail call ptr @H5FL_reg_free(ptr noundef nonnull @H5_H5T_t_reg_free_list, ptr noundef nonnull %3) #15
  br label %12

12:                                               ; preds = %9, %10, %5
  %.0 = phi ptr [ null, %5 ], [ %1, %10 ], [ %3, %9 ]
  ret ptr %.0
}